target datalayout = "e-m:e-p270:32:32-p271:32:32-p272:64:64-i64:64-i128:128-f80:128-n8:16:32:64-S128"
target triple = "x86_64-pc-linux-gnu"

%struct.evp_cipher_ctx_st = type { ptr, ptr, i32, i32, [16 x i8], [16 x i8], [32 x i8], i32, ptr, i32, i32, i64, ptr, i32, i32, [32 x i8], i64, ptr, ptr }
%struct.EVP_ARIA_CCM_CTX = type { %union.anon.1, i32, i32, i32, i32, i32, i32, i32, %struct.ccm128_context, ptr }
%union.anon.1 = type { double, [272 x i8] }
%struct.ccm128_context = type { %union.anon.2, %union.anon.2, i64, ptr, ptr }
%union.anon.2 = type { [2 x i64] }

; Function Attrs: nounwind uwtable
define internal i32 @aria_ccm_ctrl(ptr noundef %0, i32 noundef %1, i32 noundef %2, ptr noundef %3) #0 {
  %5 = alloca i32, align 4
  %6 = alloca ptr, align 8
  %7 = alloca i32, align 4
  %8 = alloca i32, align 4
  %9 = alloca ptr, align 8
  %10 = alloca ptr, align 8
  %11 = alloca i32, align 4
  %12 = alloca i16, align 2
  %13 = alloca ptr, align 8
  %14 = alloca ptr, align 8
  store ptr %0, ptr %6, align 8, !tbaa !3
  store i32 %1, ptr %7, align 4, !tbaa !10
  store i32 %2, ptr %8, align 4, !tbaa !10
  store ptr %3, ptr %9, align 8, !tbaa !41
  call void @llvm.lifetime.start.p0(i64 8, ptr %10) #4
  %15 = load ptr, ptr %6, align 8, !tbaa !3
  %16 = call ptr @EVP_CIPHER_CTX_get_cipher_data(ptr noundef %15)
  store ptr %16, ptr %10, align 8, !tbaa !41
  %17 = load i32, ptr %7, align 4, !tbaa !10
  switch i32 %17, label %237 [
    i32 0, label %18
    i32 37, label %33
    i32 22, label %39
    i32 18, label %126
    i32 9, label %137
    i32 20, label %140
    i32 17, label %151
    i32 16, label %185
    i32 8, label %211
  ]

18:                                               ; preds = %4
  %19 = load ptr, ptr %10, align 8, !tbaa !41
  %20 = getelementptr inbounds nuw %struct.EVP_ARIA_CCM_CTX, ptr %19, i32 0, i32 1
  store i32 0, ptr %20, align 8, !tbaa !65
  %21 = load ptr, ptr %10, align 8, !tbaa !41
  %22 = getelementptr inbounds nuw %struct.EVP_ARIA_CCM_CTX, ptr %21, i32 0, i32 2
  store i32 0, ptr %22, align 4, !tbaa !66
  %23 = load ptr, ptr %10, align 8, !tbaa !41
  %24 = getelementptr inbounds nuw %struct.EVP_ARIA_CCM_CTX, ptr %23, i32 0, i32 5
  store i32 8, ptr %24, align 8, !tbaa !63
  %25 = load ptr, ptr %10, align 8, !tbaa !41
  %26 = getelementptr inbounds nuw %struct.EVP_ARIA_CCM_CTX, ptr %25, i32 0, i32 6
  store i32 12, ptr %26, align 4, !tbaa !59
  %27 = load ptr, ptr %10, align 8, !tbaa !41
  %28 = getelementptr inbounds nuw %struct.EVP_ARIA_CCM_CTX, ptr %27, i32 0, i32 3
  store i32 0, ptr %28, align 8, !tbaa !71
  %29 = load ptr, ptr %10, align 8, !tbaa !41
  %30 = getelementptr inbounds nuw %struct.EVP_ARIA_CCM_CTX, ptr %29, i32 0, i32 4
  store i32 0, ptr %30, align 4, !tbaa !70
  %31 = load ptr, ptr %10, align 8, !tbaa !41
  %32 = getelementptr inbounds nuw %struct.EVP_ARIA_CCM_CTX, ptr %31, i32 0, i32 7
  store i32 -1, ptr %32, align 8, !tbaa !69
  store i32 1, ptr %5, align 4
  store i32 1, ptr %11, align 4
  br label %238

33:                                               ; preds = %4
  %34 = load ptr, ptr %10, align 8, !tbaa !41
  %35 = getelementptr inbounds nuw %struct.EVP_ARIA_CCM_CTX, ptr %34, i32 0, i32 5
  %36 = load i32, ptr %35, align 8, !tbaa !63
  %37 = sub nsw i32 15, %36
  %38 = load ptr, ptr %9, align 8, !tbaa !41
  store i32 %37, ptr %38, align 4, !tbaa !10
  store i32 1, ptr %5, align 4
  store i32 1, ptr %11, align 4
  br label %238

39:                                               ; preds = %4
  %40 = load i32, ptr %8, align 4, !tbaa !10
  %41 = icmp ne i32 %40, 13
  br i1 %41, label %42, label %43

42:                                               ; preds = %39
  store i32 0, ptr %5, align 4
  store i32 1, ptr %11, align 4
  br label %238

43:                                               ; preds = %39
  %44 = load ptr, ptr %6, align 8, !tbaa !3
  %45 = call ptr @EVP_CIPHER_CTX_buf_noconst(ptr noundef %44)
  %46 = load ptr, ptr %9, align 8, !tbaa !41
  %47 = load i32, ptr %8, align 4, !tbaa !10
  %48 = sext i32 %47 to i64
  call void @llvm.memcpy.p0.p0.i64(ptr align 1 %45, ptr align 1 %46, i64 %48, i1 false)
  %49 = load i32, ptr %8, align 4, !tbaa !10
  %50 = load ptr, ptr %10, align 8, !tbaa !41
  %51 = getelementptr inbounds nuw %struct.EVP_ARIA_CCM_CTX, ptr %50, i32 0, i32 7
  store i32 %49, ptr %51, align 8, !tbaa !69
  call void @llvm.lifetime.start.p0(i64 2, ptr %12) #4
  %52 = load ptr, ptr %6, align 8, !tbaa !3
  %53 = call ptr @EVP_CIPHER_CTX_buf_noconst(ptr noundef %52)
  %54 = load i32, ptr %8, align 4, !tbaa !10
  %55 = sub nsw i32 %54, 2
  %56 = sext i32 %55 to i64
  %57 = getelementptr inbounds i8, ptr %53, i64 %56
  %58 = load i8, ptr %57, align 1, !tbaa !56
  %59 = zext i8 %58 to i32
  %60 = shl i32 %59, 8
  %61 = load ptr, ptr %6, align 8, !tbaa !3
  %62 = call ptr @EVP_CIPHER_CTX_buf_noconst(ptr noundef %61)
  %63 = load i32, ptr %8, align 4, !tbaa !10
  %64 = sub nsw i32 %63, 1
  %65 = sext i32 %64 to i64
  %66 = getelementptr inbounds i8, ptr %62, i64 %65
  %67 = load i8, ptr %66, align 1, !tbaa !56
  %68 = zext i8 %67 to i32
  %69 = or i32 %60, %68
  %70 = trunc i32 %69 to i16
  store i16 %70, ptr %12, align 2, !tbaa !72
  %71 = load i16, ptr %12, align 2, !tbaa !72
  %72 = zext i16 %71 to i32
  %73 = icmp slt i32 %72, 8
  br i1 %73, label %74, label %75

74:                                               ; preds = %43
  store i32 0, ptr %5, align 4
  store i32 1, ptr %11, align 4
  br label %120

75:                                               ; preds = %43
  %76 = load i16, ptr %12, align 2, !tbaa !72
  %77 = zext i16 %76 to i32
  %78 = sub nsw i32 %77, 8
  %79 = trunc i32 %78 to i16
  store i16 %79, ptr %12, align 2, !tbaa !72
  %80 = load ptr, ptr %6, align 8, !tbaa !3
  %81 = call i32 @EVP_CIPHER_CTX_is_encrypting(ptr noundef %80)
  %82 = icmp ne i32 %81, 0
  br i1 %82, label %99, label %83

83:                                               ; preds = %75
  %84 = load i16, ptr %12, align 2, !tbaa !72
  %85 = zext i16 %84 to i32
  %86 = load ptr, ptr %10, align 8, !tbaa !41
  %87 = getelementptr inbounds nuw %struct.EVP_ARIA_CCM_CTX, ptr %86, i32 0, i32 6
  %88 = load i32, ptr %87, align 4, !tbaa !59
  %89 = icmp slt i32 %85, %88
  br i1 %89, label %90, label %91

90:                                               ; preds = %83
  store i32 0, ptr %5, align 4
  store i32 1, ptr %11, align 4
  br label %120

91:                                               ; preds = %83
  %92 = load ptr, ptr %10, align 8, !tbaa !41
  %93 = getelementptr inbounds nuw %struct.EVP_ARIA_CCM_CTX, ptr %92, i32 0, i32 6
  %94 = load i32, ptr %93, align 4, !tbaa !59
  %95 = load i16, ptr %12, align 2, !tbaa !72
  %96 = zext i16 %95 to i32
  %97 = sub nsw i32 %96, %94
  %98 = trunc i32 %97 to i16
  store i16 %98, ptr %12, align 2, !tbaa !72
  br label %99

99:                                               ; preds = %91, %75
  %100 = load i16, ptr %12, align 2, !tbaa !72
  %101 = zext i16 %100 to i32
  %102 = ashr i32 %101, 8
  %103 = trunc i32 %102 to i8
  %104 = load ptr, ptr %6, align 8, !tbaa !3
  %105 = call ptr @EVP_CIPHER_CTX_buf_noconst(ptr noundef %104)
  %106 = load i32, ptr %8, align 4, !tbaa !10
  %107 = sub nsw i32 %106, 2
  %108 = sext i32 %107 to i64
  %109 = getelementptr inbounds i8, ptr %105, i64 %108
  store i8 %103, ptr %109, align 1, !tbaa !56
  %110 = load i16, ptr %12, align 2, !tbaa !72
  %111 = zext i16 %110 to i32
  %112 = and i32 %111, 255
  %113 = trunc i32 %112 to i8
  %114 = load ptr, ptr %6, align 8, !tbaa !3
  %115 = call ptr @EVP_CIPHER_CTX_buf_noconst(ptr noundef %114)
  %116 = load i32, ptr %8, align 4, !tbaa !10
  %117 = sub nsw i32 %116, 1
  %118 = sext i32 %117 to i64
  %119 = getelementptr inbounds i8, ptr %115, i64 %118
  store i8 %113, ptr %119, align 1, !tbaa !56
  store i32 0, ptr %11, align 4
  br label %120

120:                                              ; preds = %99, %90, %74
  call void @llvm.lifetime.end.p0(i64 2, ptr %12) #4
  %121 = load i32, ptr %11, align 4
  switch i32 %121, label %238 [
    i32 0, label %122
  ]

122:                                              ; preds = %120
  %123 = load ptr, ptr %10, align 8, !tbaa !41
  %124 = getelementptr inbounds nuw %struct.EVP_ARIA_CCM_CTX, ptr %123, i32 0, i32 6
  %125 = load i32, ptr %124, align 4, !tbaa !59
  store i32 %125, ptr %5, align 4
  store i32 1, ptr %11, align 4
  br label %238

126:                                              ; preds = %4
  %127 = load i32, ptr %8, align 4, !tbaa !10
  %128 = icmp ne i32 %127, 4
  br i1 %128, label %129, label %130

129:                                              ; preds = %126
  store i32 0, ptr %5, align 4
  store i32 1, ptr %11, align 4
  br label %238

130:                                              ; preds = %126
  %131 = load ptr, ptr %6, align 8, !tbaa !3
  %132 = getelementptr inbounds nuw %struct.evp_cipher_ctx_st, ptr %131, i32 0, i32 5
  %133 = getelementptr inbounds [16 x i8], ptr %132, i64 0, i64 0
  %134 = load ptr, ptr %9, align 8, !tbaa !41
  %135 = load i32, ptr %8, align 4, !tbaa !10
  %136 = sext i32 %135 to i64
  call void @llvm.memcpy.p0.p0.i64(ptr align 8 %133, ptr align 1 %134, i64 %136, i1 false)
  store i32 1, ptr %5, align 4
  store i32 1, ptr %11, align 4
  br label %238

137:                                              ; preds = %4
  %138 = load i32, ptr %8, align 4, !tbaa !10
  %139 = sub nsw i32 15, %138
  store i32 %139, ptr %8, align 4, !tbaa !10
  br label %140

140:                                              ; preds = %4, %137
  %141 = load i32, ptr %8, align 4, !tbaa !10
  %142 = icmp slt i32 %141, 2
  br i1 %142, label %146, label %143

143:                                              ; preds = %140
  %144 = load i32, ptr %8, align 4, !tbaa !10
  %145 = icmp sgt i32 %144, 8
  br i1 %145, label %146, label %147

146:                                              ; preds = %143, %140
  store i32 0, ptr %5, align 4
  store i32 1, ptr %11, align 4
  br label %238

147:                                              ; preds = %143
  %148 = load i32, ptr %8, align 4, !tbaa !10
  %149 = load ptr, ptr %10, align 8, !tbaa !41
  %150 = getelementptr inbounds nuw %struct.EVP_ARIA_CCM_CTX, ptr %149, i32 0, i32 5
  store i32 %148, ptr %150, align 8, !tbaa !63
  store i32 1, ptr %5, align 4
  store i32 1, ptr %11, align 4
  br label %238

151:                                              ; preds = %4
  %152 = load i32, ptr %8, align 4, !tbaa !10
  %153 = and i32 %152, 1
  %154 = icmp ne i32 %153, 0
  br i1 %154, label %161, label %155

155:                                              ; preds = %151
  %156 = load i32, ptr %8, align 4, !tbaa !10
  %157 = icmp slt i32 %156, 4
  br i1 %157, label %161, label %158

158:                                              ; preds = %155
  %159 = load i32, ptr %8, align 4, !tbaa !10
  %160 = icmp sgt i32 %159, 16
  br i1 %160, label %161, label %162

161:                                              ; preds = %158, %155, %151
  store i32 0, ptr %5, align 4
  store i32 1, ptr %11, align 4
  br label %238

162:                                              ; preds = %158
  %163 = load ptr, ptr %6, align 8, !tbaa !3
  %164 = call i32 @EVP_CIPHER_CTX_is_encrypting(ptr noundef %163)
  %165 = icmp ne i32 %164, 0
  br i1 %165, label %166, label %170

166:                                              ; preds = %162
  %167 = load ptr, ptr %9, align 8, !tbaa !41
  %168 = icmp ne ptr %167, null
  br i1 %168, label %169, label %170

169:                                              ; preds = %166
  store i32 0, ptr %5, align 4
  store i32 1, ptr %11, align 4
  br label %238

170:                                              ; preds = %166, %162
  %171 = load ptr, ptr %9, align 8, !tbaa !41
  %172 = icmp ne ptr %171, null
  br i1 %172, label %173, label %181

173:                                              ; preds = %170
  %174 = load ptr, ptr %10, align 8, !tbaa !41
  %175 = getelementptr inbounds nuw %struct.EVP_ARIA_CCM_CTX, ptr %174, i32 0, i32 3
  store i32 1, ptr %175, align 8, !tbaa !71
  %176 = load ptr, ptr %6, align 8, !tbaa !3
  %177 = call ptr @EVP_CIPHER_CTX_buf_noconst(ptr noundef %176)
  %178 = load ptr, ptr %9, align 8, !tbaa !41
  %179 = load i32, ptr %8, align 4, !tbaa !10
  %180 = sext i32 %179 to i64
  call void @llvm.memcpy.p0.p0.i64(ptr align 1 %177, ptr align 1 %178, i64 %180, i1 false)
  br label %181

181:                                              ; preds = %173, %170
  %182 = load i32, ptr %8, align 4, !tbaa !10
  %183 = load ptr, ptr %10, align 8, !tbaa !41
  %184 = getelementptr inbounds nuw %struct.EVP_ARIA_CCM_CTX, ptr %183, i32 0, i32 6
  store i32 %182, ptr %184, align 4, !tbaa !59
  store i32 1, ptr %5, align 4
  store i32 1, ptr %11, align 4
  br label %238

185:                                              ; preds = %4
  %186 = load ptr, ptr %6, align 8, !tbaa !3
  %187 = call i32 @EVP_CIPHER_CTX_is_encrypting(ptr noundef %186)
  %188 = icmp ne i32 %187, 0
  br i1 %188, label %189, label %194

189:                                              ; preds = %185
  %190 = load ptr, ptr %10, align 8, !tbaa !41
  %191 = getelementptr inbounds nuw %struct.EVP_ARIA_CCM_CTX, ptr %190, i32 0, i32 3
  %192 = load i32, ptr %191, align 8, !tbaa !71
  %193 = icmp ne i32 %192, 0
  br i1 %193, label %195, label %194

194:                                              ; preds = %189, %185
  store i32 0, ptr %5, align 4
  store i32 1, ptr %11, align 4
  br label %238

195:                                              ; preds = %189
  %196 = load ptr, ptr %10, align 8, !tbaa !41
  %197 = getelementptr inbounds nuw %struct.EVP_ARIA_CCM_CTX, ptr %196, i32 0, i32 8
  %198 = load ptr, ptr %9, align 8, !tbaa !41
  %199 = load i32, ptr %8, align 4, !tbaa !10
  %200 = sext i32 %199 to i64
  %201 = call i64 @CRYPTO_ccm128_tag(ptr noundef %197, ptr noundef %198, i64 noundef %200)
  %202 = icmp ne i64 %201, 0
  br i1 %202, label %204, label %203

203:                                              ; preds = %195
  store i32 0, ptr %5, align 4
  store i32 1, ptr %11, align 4
  br label %238

204:                                              ; preds = %195
  %205 = load ptr, ptr %10, align 8, !tbaa !41
  %206 = getelementptr inbounds nuw %struct.EVP_ARIA_CCM_CTX, ptr %205, i32 0, i32 3
  store i32 0, ptr %206, align 8, !tbaa !71
  %207 = load ptr, ptr %10, align 8, !tbaa !41
  %208 = getelementptr inbounds nuw %struct.EVP_ARIA_CCM_CTX, ptr %207, i32 0, i32 2
  store i32 0, ptr %208, align 4, !tbaa !66
  %209 = load ptr, ptr %10, align 8, !tbaa !41
  %210 = getelementptr inbounds nuw %struct.EVP_ARIA_CCM_CTX, ptr %209, i32 0, i32 4
  store i32 0, ptr %210, align 4, !tbaa !70
  store i32 1, ptr %5, align 4
  store i32 1, ptr %11, align 4
  br label %238

211:                                              ; preds = %4
  call void @llvm.lifetime.start.p0(i64 8, ptr %13) #4
  %212 = load ptr, ptr %9, align 8, !tbaa !41
  store ptr %212, ptr %13, align 8, !tbaa !3
  call void @llvm.lifetime.start.p0(i64 8, ptr %14) #4
  %213 = load ptr, ptr %13, align 8, !tbaa !3
  %214 = call ptr @EVP_CIPHER_CTX_get_cipher_data(ptr noundef %213)
  store ptr %214, ptr %14, align 8, !tbaa !41
  %215 = load ptr, ptr %10, align 8, !tbaa !41
  %216 = getelementptr inbounds nuw %struct.EVP_ARIA_CCM_CTX, ptr %215, i32 0, i32 8
  %217 = getelementptr inbounds nuw %struct.ccm128_context, ptr %216, i32 0, i32 4
  %218 = load ptr, ptr %217, align 8, !tbaa !74
  %219 = icmp ne ptr %218, null
  br i1 %219, label %220, label %235

220:                                              ; preds = %211
  %221 = load ptr, ptr %10, align 8, !tbaa !41
  %222 = getelementptr inbounds nuw %struct.EVP_ARIA_CCM_CTX, ptr %221, i32 0, i32 8
  %223 = getelementptr inbounds nuw %struct.ccm128_context, ptr %222, i32 0, i32 4
  %224 = load ptr, ptr %223, align 8, !tbaa !74
  %225 = load ptr, ptr %10, align 8, !tbaa !41
  %226 = getelementptr inbounds nuw %struct.EVP_ARIA_CCM_CTX, ptr %225, i32 0, i32 0
  %227 = icmp ne ptr %224, %226
  br i1 %227, label %228, label %229

228:                                              ; preds = %220
  store i32 0, ptr %5, align 4
  store i32 1, ptr %11, align 4
  br label %236

229:                                              ; preds = %220
  %230 = load ptr, ptr %14, align 8, !tbaa !41
  %231 = getelementptr inbounds nuw %struct.EVP_ARIA_CCM_CTX, ptr %230, i32 0, i32 0
  %232 = load ptr, ptr %14, align 8, !tbaa !41
  %233 = getelementptr inbounds nuw %struct.EVP_ARIA_CCM_CTX, ptr %232, i32 0, i32 8
  %234 = getelementptr inbounds nuw %struct.ccm128_context, ptr %233, i32 0, i32 4
  store ptr %231, ptr %234, align 8, !tbaa !74
  br label %235

235:                                              ; preds = %229, %211
  store i32 1, ptr %5, align 4
  store i32 1, ptr %11, align 4
  br label %236

236:                                              ; preds = %235, %228
  call void @llvm.lifetime.end.p0(i64 8, ptr %14) #4
  call void @llvm.lifetime.end.p0(i64 8, ptr %13) #4
  br label %238

237:                                              ; preds = %4
  store i32 -1, ptr %5, align 4
  store i32 1, ptr %11, align 4
  br label %238

238:                                              ; preds = %237, %236, %204, %203, %194, %181, %169, %161, %147, %146, %130, %129, %122, %120, %42, %33, %18
  call void @llvm.lifetime.end.p0(i64 8, ptr %10) #4
  %239 = load i32, ptr %5, align 4
  ret i32 %239
}